target datalayout = "e-m:e-p270:32:32-p271:32:32-p272:64:64-i64:64-i128:128-f80:128-n8:16:32:64-S128"
target triple = "x86_64-pc-linux-gnu"

%class.btCollisionDispatcher = type { %class.btDispatcher, i32, [4 x i8], %class.btAlignedObjectArray, ptr, ptr, ptr, [36 x [36 x ptr]], [36 x [36 x ptr]], ptr }
%class.btDispatcher = type { ptr }
%class.btAlignedObjectArray = type <{ [4 x i8], i32, i32, [4 x i8], ptr, i8, [7 x i8] }>

; Function Attrs: inlinehint mustprogress nounwind uwtable
define linkonce_odr dso_local void @_ZN20btAlignedObjectArrayIP20btPersistentManifoldE4initEv(ptr noundef nonnull align 8 dereferenceable(25) %0) #3 comdat align 2 {
  %2 = alloca ptr, align 8
  store ptr %0, ptr %2, align 8, !tbaa !36
  %3 = load ptr, ptr %2, align 8
  %4 = getelementptr inbounds nuw %class.btAlignedObjectArray, ptr %3, i32 0, i32 5
  store i8 1, ptr %4, align 8, !tbaa !161
  %5 = getelementptr inbounds nuw %class.btAlignedObjectArray, ptr %3, i32 0, i32 4
  store ptr null, ptr %5, align 8, !tbaa !94
  %6 = getelementptr inbounds nuw %class.btAlignedObjectArray, ptr %3, i32 0, i32 1
  store i32 0, ptr %6, align 4, !tbaa !92
  %7 = getelementptr inbounds nuw %class.btAlignedObjectArray, ptr %3, i32 0, i32 2
  store i32 0, ptr %7, align 8, !tbaa !162
  ret void
}

; Function Attrs: mustprogress nounwind uwtable
define linkonce_odr dso_local void @_ZN18btAlignedAllocatorIP20btPersistentManifoldLj16EEC2Ev(ptr noundef nonnull align 1 dereferenceable(1) %0) unnamed_addr #1 comdat align 2 {
  %2 = alloca ptr, align 8
  store ptr %0, ptr %2, align 8, !tbaa !159
  ret void
}

; Function Attrs: mustprogress nounwind uwtable
define linkonce_odr dso_local void @_ZN21btCollisionDispatcher15setNearCallbackEPFvR16btBroadphasePairRS_RK16btDispatcherInfoE(ptr noundef nonnull align 8 dereferenceable(20816) %0, ptr noundef %1) #1 comdat align 2 {
  %3 = alloca ptr, align 8
  %4 = alloca ptr, align 8
  store ptr %0, ptr %3, align 8, !tbaa !12
  store ptr %1, ptr %4, align 8, !tbaa !38
  %5 = load ptr, ptr %3, align 8
  %6 = load ptr, ptr %4, align 8, !tbaa !38
  %7 = getelementptr inbounds nuw %class.btCollisionDispatcher, ptr %5, i32 0, i32 4
  store ptr %6, ptr %7, align 8, !tbaa !39
  ret void
}

; Function Attrs: mustprogress uwtable
define linkonce_odr dso_local void @_ZN20btAlignedObjectArrayIP20btPersistentManifoldEC2Ev(ptr noundef nonnull align 8 dereferenceable(25) %0) unnamed_addr #2 comdat align 2 {
  %2 = alloca ptr, align 8
  store ptr %0, ptr %2, align 8, !tbaa !36
  %3 = load ptr, ptr %2, align 8
  call void @_ZN18btAlignedAllocatorIP20btPersistentManifoldLj16EEC2Ev(ptr noundef nonnull align 1 dereferenceable(1) %3)
  call void @_ZN20btAlignedObjectArrayIP20btPersistentManifoldE4initEv(ptr noundef nonnull align 8 dereferenceable(25) %3)
  ret void
}

; Function Attrs: inlinehint mustprogress nounwind uwtable
define linkonce_odr dso_local void @_ZN12btDispatcherC2Ev(ptr noundef nonnull align 8 dereferenceable(8) %0) unnamed_addr #3 comdat align 2 {
  %2 = alloca ptr, align 8
  store ptr %0, ptr %2, align 8, !tbaa !34
  %3 = load ptr, ptr %2, align 8
  store ptr getelementptr inbounds inrange(-16, 128) ({ [18 x ptr] }, ptr @_ZTV12btDispatcher, i32 0, i32 0, i32 2), ptr %3, align 8, !tbaa !16
  ret void
}

; Function Attrs: mustprogress uwtable
define dso_local void @_ZN21btCollisionDispatcherC2EP24btCollisionConfiguration(ptr noundef nonnull align 8 dereferenceable(20816) %0, ptr noundef %1) unnamed_addr #2 align 2 personality ptr @__gxx_personality_v0 {
  %3 = alloca ptr, align 8
  %4 = alloca ptr, align 8
  %5 = alloca ptr, align 8
  %6 = alloca i32, align 4
  %7 = alloca i32, align 4
  %8 = alloca i32, align 4
  store ptr %0, ptr %3, align 8, !tbaa !12
  store ptr %1, ptr %4, align 8, !tbaa !14
  %9 = load ptr, ptr %3, align 8
  call void @_ZN12btDispatcherC2Ev(ptr noundef nonnull align 8 dereferenceable(8) %9) #11
  store ptr getelementptr inbounds inrange(-16, 128) ({ [18 x ptr] }, ptr @_ZTV21btCollisionDispatcher, i32 0, i32 0, i32 2), ptr %9, align 8, !tbaa !16
  %10 = getelementptr inbounds nuw %class.btCollisionDispatcher, ptr %9, i32 0, i32 1
  store i32 2, ptr %10, align 8, !tbaa !18
  %11 = getelementptr inbounds nuw %class.btCollisionDispatcher, ptr %9, i32 0, i32 3
  invoke void @_ZN20btAlignedObjectArrayIP20btPersistentManifoldEC2Ev(ptr noundef nonnull align 8 dereferenceable(25) %11)
          to label %12 unwind label %38

12:                                               ; preds = %2
  %13 = getelementptr inbounds nuw %class.btCollisionDispatcher, ptr %9, i32 0, i32 9
  %14 = load ptr, ptr %4, align 8, !tbaa !14
  store ptr %14, ptr %13, align 8, !tbaa !26
  call void @llvm.lifetime.start.p0(i64 4, ptr %7) #11
  invoke void @_ZN21btCollisionDispatcher15setNearCallbackEPFvR16btBroadphasePairRS_RK16btDispatcherInfoE(ptr noundef nonnull align 8 dereferenceable(20816) %9, ptr noundef @_ZN21btCollisionDispatcher19defaultNearCallbackER16btBroadphasePairRS_RK16btDispatcherInfo)
          to label %15 unwind label %42

15:                                               ; preds = %12
  %16 = load ptr, ptr %4, align 8, !tbaa !14
  %17 = load ptr, ptr %16, align 8, !tbaa !16
  %18 = getelementptr inbounds ptr, ptr %17, i64 3
  %19 = load ptr, ptr %18, align 8
  %20 = invoke noundef ptr %19(ptr noundef nonnull align 8 dereferenceable(8) %16)
          to label %21 unwind label %42

21:                                               ; preds = %15
  %22 = getelementptr inbounds nuw %class.btCollisionDispatcher, ptr %9, i32 0, i32 5
  store ptr %20, ptr %22, align 8, !tbaa !27
  %23 = load ptr, ptr %4, align 8, !tbaa !14
  %24 = load ptr, ptr %23, align 8, !tbaa !16
  %25 = getelementptr inbounds ptr, ptr %24, i64 2
  %26 = load ptr, ptr %25, align 8
  %27 = invoke noundef ptr %26(ptr noundef nonnull align 8 dereferenceable(8) %23)
          to label %28 unwind label %42

28:                                               ; preds = %21
  %29 = getelementptr inbounds nuw %class.btCollisionDispatcher, ptr %9, i32 0, i32 6
  store ptr %27, ptr %29, align 8, !tbaa !28
  store i32 0, ptr %7, align 4, !tbaa !9
  br label %30

30:                                               ; preds = %87, %28
  %31 = load i32, ptr %7, align 4, !tbaa !9
  %32 = icmp slt i32 %31, 36
  br i1 %32, label %33, label %90

33:                                               ; preds = %30
  call void @llvm.lifetime.start.p0(i64 4, ptr %8) #11
  store i32 0, ptr %8, align 4, !tbaa !9
  br label %34

34:                                               ; preds = %79, %33
  %35 = load i32, ptr %8, align 4, !tbaa !9
  %36 = icmp slt i32 %35, 36
  br i1 %36, label %46, label %37

37:                                               ; preds = %34
  call void @llvm.lifetime.end.p0(i64 4, ptr %8) #11
  br label %86

38:                                               ; preds = %2
  %39 = landingpad { ptr, i32 }
          cleanup
  %40 = extractvalue { ptr, i32 } %39, 0
  store ptr %40, ptr %5, align 8
  %41 = extractvalue { ptr, i32 } %39, 1
  store i32 %41, ptr %6, align 4
  br label %92

42:                                               ; preds = %21, %15, %12
  %43 = landingpad { ptr, i32 }
          cleanup
  %44 = extractvalue { ptr, i32 } %43, 0
  store ptr %44, ptr %5, align 8
  %45 = extractvalue { ptr, i32 } %43, 1
  store i32 %45, ptr %6, align 4
  br label %91

46:                                               ; preds = %34
  %47 = getelementptr inbounds nuw %class.btCollisionDispatcher, ptr %9, i32 0, i32 9
  %48 = load ptr, ptr %47, align 8, !tbaa !26
  %49 = load i32, ptr %7, align 4, !tbaa !9
  %50 = load i32, ptr %8, align 4, !tbaa !9
  %51 = load ptr, ptr %48, align 8, !tbaa !16
  %52 = getelementptr inbounds ptr, ptr %51, i64 4
  %53 = load ptr, ptr %52, align 8
  %54 = invoke noundef ptr %53(ptr noundef nonnull align 8 dereferenceable(8) %48, i32 noundef %49, i32 noundef %50)
          to label %55 unwind label %82

55:                                               ; preds = %46
  %56 = getelementptr inbounds nuw %class.btCollisionDispatcher, ptr %9, i32 0, i32 7
  %57 = load i32, ptr %7, align 4, !tbaa !9
  %58 = sext i32 %57 to i64
  %59 = getelementptr inbounds [36 x [36 x ptr]], ptr %56, i64 0, i64 %58
  %60 = load i32, ptr %8, align 4, !tbaa !9
  %61 = sext i32 %60 to i64
  %62 = getelementptr inbounds [36 x ptr], ptr %59, i64 0, i64 %61
  store ptr %54, ptr %62, align 8, !tbaa !29
  %63 = getelementptr inbounds nuw %class.btCollisionDispatcher, ptr %9, i32 0, i32 9
  %64 = load ptr, ptr %63, align 8, !tbaa !26
  %65 = load i32, ptr %7, align 4, !tbaa !9
  %66 = load i32, ptr %8, align 4, !tbaa !9
  %67 = load ptr, ptr %64, align 8, !tbaa !16
  %68 = getelementptr inbounds ptr, ptr %67, i64 5
  %69 = load ptr, ptr %68, align 8
  %70 = invoke noundef ptr %69(ptr noundef nonnull align 8 dereferenceable(8) %64, i32 noundef %65, i32 noundef %66)
          to label %71 unwind label %82

71:                                               ; preds = %55
  %72 = getelementptr inbounds nuw %class.btCollisionDispatcher, ptr %9, i32 0, i32 8
  %73 = load i32, ptr %7, align 4, !tbaa !9
  %74 = sext i32 %73 to i64
  %75 = getelementptr inbounds [36 x [36 x ptr]], ptr %72, i64 0, i64 %74
  %76 = load i32, ptr %8, align 4, !tbaa !9
  %77 = sext i32 %76 to i64
  %78 = getelementptr inbounds [36 x ptr], ptr %75, i64 0, i64 %77
  store ptr %70, ptr %78, align 8, !tbaa !29
  br label %79

79:                                               ; preds = %71
  %80 = load i32, ptr %8, align 4, !tbaa !9
  %81 = add nsw i32 %80, 1
  store i32 %81, ptr %8, align 4, !tbaa !9
  br label %34, !llvm.loop !31

82:                                               ; preds = %55, %46
  %83 = landingpad { ptr, i32 }
          cleanup
  %84 = extractvalue { ptr, i32 } %83, 0
  store ptr %84, ptr %5, align 8
  %85 = extractvalue { ptr, i32 } %83, 1
  store i32 %85, ptr %6, align 4
  call void @llvm.lifetime.end.p0(i64 4, ptr %8) #11
  br label %91

86:                                               ; preds = %37
  br label %87

87:                                               ; preds = %86
  %88 = load i32, ptr %7, align 4, !tbaa !9
  %89 = add nsw i32 %88, 1
  store i32 %89, ptr %7, align 4, !tbaa !9
  br label %30, !llvm.loop !33

90:                                               ; preds = %30
  call void @llvm.lifetime.end.p0(i64 4, ptr %7) #11
  ret void

91:                                               ; preds = %82, %42
  call void @llvm.lifetime.end.p0(i64 4, ptr %7) #11
  call void @_ZN20btAlignedObjectArrayIP20btPersistentManifoldED2Ev(ptr noundef nonnull align 8 dereferenceable(25) %11) #11
  br label %92

92:                                               ; preds = %91, %38
  call void @_ZN12btDispatcherD2Ev(ptr noundef nonnull align 8 dereferenceable(8) %9) #11
  br label %93

93:                                               ; preds = %92
  %94 = load ptr, ptr %5, align 8
  %95 = load i32, ptr %6, align 4
  %96 = insertvalue { ptr, i32 } poison, ptr %94, 0
  %97 = insertvalue { ptr, i32 } %96, i32 %95, 1
  resume { ptr, i32 } %97
}