; Function Attrs: mustprogress uwtable
define dso_local void @_ZN21btCollisionDispatcherC2EP24btCollisionConfiguration(ptr noundef nonnull align 8 dereferenceable(20816) initializes((0, 12), (20, 28), (32, 41), (48, 56), (20808, 20816)) %0, ptr noundef %1) unnamed_addr #0 align 2 personality ptr @__gxx_personality_v0 {
  store ptr getelementptr inbounds nuw inrange(-16, 128) (i8, ptr @_ZTV21btCollisionDispatcher, i64 16), ptr %0, align 8, !tbaa !4
  %3 = getelementptr inbounds nuw i8, ptr %0, i64 8
  store i32 2, ptr %3, align 8, !tbaa !7
  %4 = getelementptr inbounds nuw i8, ptr %0, i64 40
  store i8 1, ptr %4, align 8, !tbaa !19
  %5 = getelementptr inbounds nuw i8, ptr %0, i64 32
  store ptr null, ptr %5, align 8, !tbaa !20
  %6 = getelementptr inbounds nuw i8, ptr %0, i64 20
  store i32 0, ptr %6, align 4, !tbaa !21
  %7 = getelementptr inbounds nuw i8, ptr %0, i64 24
  store i32 0, ptr %7, align 8, !tbaa !22
  %8 = getelementptr inbounds nuw i8, ptr %0, i64 20808
  store ptr %1, ptr %8, align 8, !tbaa !23
  %9 = getelementptr inbounds nuw i8, ptr %0, i64 48
  store ptr @_ZN21btCollisionDispatcher19defaultNearCallbackER16btBroadphasePairRS_RK16btDispatcherInfo, ptr %9, align 8, !tbaa !24
  %10 = load ptr, ptr %1, align 8, !tbaa !4
  %11 = getelementptr inbounds nuw i8, ptr %10, i64 24
  %12 = load ptr, ptr %11, align 8
  %13 = invoke noundef ptr %12(ptr noundef nonnull align 8 dereferenceable(8) %1)
          to label %14 unwind label %26

14:                                               ; preds = %2
  %15 = getelementptr inbounds nuw i8, ptr %0, i64 56
  store ptr %13, ptr %15, align 8, !tbaa !25
  %16 = load ptr, ptr %1, align 8, !tbaa !4
  %17 = getelementptr inbounds nuw i8, ptr %16, i64 16
  %18 = load ptr, ptr %17, align 8
  %19 = invoke noundef ptr %18(ptr noundef nonnull align 8 dereferenceable(8) %1)
          to label %20 unwind label %26

20:                                               ; preds = %14
  %21 = getelementptr inbounds nuw i8, ptr %0, i64 64
  store ptr %19, ptr %21, align 8, !tbaa !26
  %22 = getelementptr inbounds nuw i8, ptr %0, i64 72
  %23 = getelementptr inbounds nuw i8, ptr %0, i64 10440
  br label %.preheader

.preheader:                                       ; preds = %20, %25
  %indvars.iv26 = phi i64 [ 0, %20 ], [ %indvars.iv.next27, %25 ]
  %24 = trunc nuw nsw i64 %indvars.iv26 to i32
  br label %28

25:                                               ; preds = %42
  %indvars.iv.next27 = add nuw nsw i64 %indvars.iv26, 1
  %exitcond29.not = icmp eq i64 %indvars.iv.next27, 36
  br i1 %exitcond29.not, label %46, label %.preheader, !llvm.loop !27

26:                                               ; preds = %14, %2
  %27 = landingpad { ptr, i32 }
          cleanup
  br label %47

28:                                               ; preds = %.preheader, %42
  %indvars.iv = phi i64 [ 0, %.preheader ], [ %indvars.iv.next, %42 ]
  %29 = load ptr, ptr %8, align 8, !tbaa !23
  %30 = load ptr, ptr %29, align 8, !tbaa !4
  %31 = getelementptr inbounds nuw i8, ptr %30, i64 32
  %32 = load ptr, ptr %31, align 8
  %33 = trunc nuw nsw i64 %indvars.iv to i32
  %34 = invoke noundef ptr %32(ptr noundef nonnull align 8 dereferenceable(8) %29, i32 noundef %24, i32 noundef %33)
          to label %35 unwind label %44

35:                                               ; preds = %28
  %36 = getelementptr inbounds nuw [36 x [36 x ptr]], ptr %22, i64 0, i64 %indvars.iv26, i64 %indvars.iv
  store ptr %34, ptr %36, align 8, !tbaa !29
  %37 = load ptr, ptr %8, align 8, !tbaa !23
  %38 = load ptr, ptr %37, align 8, !tbaa !4
  %39 = getelementptr inbounds nuw i8, ptr %38, i64 40
  %40 = load ptr, ptr %39, align 8
  %41 = invoke noundef ptr %40(ptr noundef nonnull align 8 dereferenceable(8) %37, i32 noundef %24, i32 noundef %33)
          to label %42 unwind label %44

42:                                               ; preds = %35
  %43 = getelementptr inbounds nuw [36 x [36 x ptr]], ptr %23, i64 0, i64 %indvars.iv26, i64 %indvars.iv
  store ptr %41, ptr %43, align 8, !tbaa !29
  %indvars.iv.next = add nuw nsw i64 %indvars.iv, 1
  %exitcond.not = icmp eq i64 %indvars.iv.next, 36
  br i1 %exitcond.not, label %25, label %28, !llvm.loop !31

44:                                               ; preds = %35, %28
  %45 = landingpad { ptr, i32 }
          cleanup
  br label %47

46:                                               ; preds = %25
  ret void

47:                                               ; preds = %44, %26
  %.pn = phi { ptr, i32 } [ %45, %44 ], [ %27, %26 ]
  %48 = getelementptr inbounds nuw i8, ptr %0, i64 16
  tail call void @_ZN20btAlignedObjectArrayIP20btPersistentManifoldED2Ev(ptr noundef nonnull align 8 dereferenceable(25) %48) #11
  tail call void @_ZN12btDispatcherD2Ev(ptr noundef nonnull align 8 dereferenceable(8) %0) #11
  resume { ptr, i32 } %.pn
}